; Function Attrs: null_pointer_is_valid sspstrong uwtable
define hidden i32 @witness_dissect_struct_ResourceChange(ptr noundef %0, i32 noundef %1, ptr noundef %2, ptr noundef %3, ptr noundef %4, ptr noundef %5, i32 noundef %6, i32 %7) local_unnamed_addr #0 {
  %9 = alloca i32, align 4
  %10 = getelementptr inbounds nuw i8, ptr %4, i64 26
  %11 = load i8, ptr %10, align 2, !range !6, !noundef !7
  store i8 1, ptr %10, align 2
  %.not = icmp eq ptr %3, null
  br i1 %.not, label %16, label %12

12:                                               ; preds = %8
  %13 = tail call ptr @proto_tree_add_item(ptr noundef nonnull %3, i32 noundef %6, ptr noundef %0, i32 noundef %1, i32 noundef -1, i32 noundef 0)
  %14 = load i32, ptr @ett_witness_witness_ResourceChange, align 4
  %15 = tail call ptr @proto_item_add_subtree(ptr noundef %13, i32 noundef %14)
  br label %16

16:                                               ; preds = %12, %8
  %.032 = phi ptr [ %15, %12 ], [ null, %8 ]
  %.0 = phi ptr [ %13, %12 ], [ null, %8 ]
  %17 = load i32, ptr @hf_witness_witness_ResourceChange_length, align 4
  %18 = tail call i32 @PIDL_dissect_uint32(ptr noundef %0, i32 noundef %1, ptr noundef %2, ptr noundef %.032, ptr noundef %4, ptr noundef %5, i32 noundef %17, i32 noundef 0)
  %19 = load i32, ptr @hf_witness_witness_ResourceChange_type, align 4
  call void @llvm.lifetime.start.p0(i64 4, ptr nonnull %9) #6
  store i32 0, ptr %9, align 4
  %20 = call i32 @dissect_ndr_uint32(ptr noundef %0, i32 noundef %18, ptr noundef %2, ptr noundef %.032, ptr noundef %4, ptr noundef %5, i32 noundef %19, ptr noundef nonnull %9)
  call void @llvm.lifetime.end.p0(i64 4, ptr nonnull %9) #6
  %21 = load i32, ptr @hf_witness_witness_ResourceChange_name, align 4
  %22 = call i32 @dissect_null_term_wstring(ptr noundef %0, i32 noundef %20, ptr noundef %2, ptr noundef %.032, ptr noundef %5, i32 noundef %21, i32 noundef 0)
  %23 = sub i32 %22, %1
  call void @proto_item_set_len(ptr noundef %.0, i32 noundef %23)
  store i8 %11, ptr %10, align 2
  ret i32 %22
}